target datalayout = "e-m:e-p270:32:32-p271:32:32-p272:64:64-i64:64-i128:128-f80:128-n8:16:32:64-S128"
target triple = "x86_64-pc-linux-gnu"

@.str.74 = private unnamed_addr constant [2 x i8] c"*\00", align 1

; Function Attrs: nounwind uwtable
define internal i32 @compare_strings(ptr noundef %0, ptr noundef %1) #0 {
  %3 = alloca i32, align 4
  %4 = alloca ptr, align 8
  %5 = alloca ptr, align 8
  store ptr %0, ptr %4, align 8, !tbaa !47
  store ptr %1, ptr %5, align 8, !tbaa !47
  %6 = load ptr, ptr %4, align 8, !tbaa !47
  %7 = icmp ne ptr null, %6
  br i1 %7, label %8, label %12

8:                                                ; preds = %2
  %9 = load ptr, ptr %4, align 8, !tbaa !47
  %10 = call i32 @strcmp(ptr noundef %9, ptr noundef @.str.74) #16
  %11 = icmp eq i32 0, %10
  br i1 %11, label %18, label %12

12:                                               ; preds = %8, %2
  %13 = load ptr, ptr %4, align 8, !tbaa !47
  %14 = icmp eq ptr null, %13
  br i1 %14, label %15, label %19

15:                                               ; preds = %12
  %16 = load ptr, ptr %5, align 8, !tbaa !47
  %17 = icmp eq ptr null, %16
  br i1 %17, label %18, label %19

18:                                               ; preds = %15, %8
  store i32 0, ptr %3, align 4
  br label %30

19:                                               ; preds = %15, %12
  %20 = load ptr, ptr %4, align 8, !tbaa !47
  %21 = icmp ne ptr null, %20
  br i1 %21, label %22, label %29

22:                                               ; preds = %19
  %23 = load ptr, ptr %5, align 8, !tbaa !47
  %24 = icmp ne ptr null, %23
  br i1 %24, label %25, label %29

25:                                               ; preds = %22
  %26 = load ptr, ptr %4, align 8, !tbaa !47
  %27 = load ptr, ptr %5, align 8, !tbaa !47
  %28 = call i32 @strcmp(ptr noundef %26, ptr noundef %27) #16
  store i32 %28, ptr %3, align 4
  br label %30

29:                                               ; preds = %22, %19
  store i32 1, ptr %3, align 4
  br label %30

30:                                               ; preds = %29, %25, %18
  %31 = load i32, ptr %3, align 4
  ret i32 %31
}