; Function Attrs: mustprogress nofree nounwind willreturn memory(argmem: read) uwtable
define internal fastcc i32 @compare_strings(ptr noundef readonly captures(address_is_null) %0, ptr noundef readonly captures(address_is_null) %1) unnamed_addr #20 {
  %.not = icmp eq ptr %0, null
  br i1 %.not, label %7, label %sub_0

sub_0:                                            ; preds = %2
  %3 = load i8, ptr %0, align 1
  %.not17 = icmp eq i8 %3, 42
  br i1 %.not17, label %.tail, label %.tail.thread

.tail:                                            ; preds = %sub_0
  %4 = getelementptr inbounds nuw i8, ptr %0, i64 1
  %5 = load i8, ptr %4, align 1
  %6 = icmp eq i8 %5, 0
  br i1 %6, label %.thread14, label %.tail.thread

7:                                                ; preds = %2
  %8 = icmp ne ptr %1, null
  %spec.select = zext i1 %8 to i32
  br label %.thread14

.tail.thread:                                     ; preds = %sub_0, %.tail
  %.not16 = icmp eq ptr %1, null
  br i1 %.not16, label %.thread14, label %9

9:                                                ; preds = %.tail.thread
  %10 = tail call i32 @strcmp(ptr noundef nonnull dereferenceable(1) %0, ptr noundef nonnull dereferenceable(1) %1) #30
  br label %.thread14

.thread14:                                        ; preds = %7, %.tail.thread, %.tail, %9
  %.0 = phi i32 [ %10, %9 ], [ 0, %.tail ], [ 1, %.tail.thread ], [ %spec.select, %7 ]
  ret i32 %.0
}